; ModuleID = '36/310.c'
source_filename = "36/310.c"
target datalayout = "e-m:e-p270:32:32-p271:32:32-p272:64:64-i64:64-f80:128-n8:16:32:64-S128"
target triple = "x86_64-pc-linux-gnu"

@.str = private unnamed_addr constant [6 x i8] c"%s %s\00", align 1
@.str.1 = private unnamed_addr constant [4 x i8] c"YES\00", align 1
@.str.2 = private unnamed_addr constant [3 x i8] c"NO\00", align 1

; Function Attrs: noinline nounwind uwtable
define dso_local void @main() #0 {
  %1 = alloca [100 x i8], align 16
  %2 = alloca [100 x i8], align 16
  %3 = alloca i32, align 4
  %4 = alloca i32, align 4
  %5 = alloca i32, align 4
  %6 = alloca i32, align 4
  %7 = alloca i32, align 4
  %8 = getelementptr inbounds [100 x i8], [100 x i8]* %1, i64 0, i64 0
  %9 = getelementptr inbounds [100 x i8], [100 x i8]* %2, i64 0, i64 0
  %10 = call i32 (i8*, ...) @__isoc99_scanf(i8* getelementptr inbounds ([6 x i8], [6 x i8]* @.str, i64 0, i64 0), i8* %8, i8* %9)
  %11 = getelementptr inbounds [100 x i8], [100 x i8]* %1, i64 0, i64 0
  %12 = call i64 @strlen(i8* %11) #3
  %13 = trunc i64 %12 to i32
  store i32 %13, i32* %6, align 4
  %14 = getelementptr inbounds [100 x i8], [100 x i8]* %2, i64 0, i64 0
  %15 = call i64 @strlen(i8* %14) #3
  %16 = trunc i64 %15 to i32
  store i32 %16, i32* %7, align 4
  %17 = getelementptr inbounds [100 x i8], [100 x i8]* %1, i64 0, i64 0
  %18 = load i32, i32* %6, align 4
  call void @sort(i8* %17, i32 %18)
  %19 = getelementptr inbounds [100 x i8], [100 x i8]* %2, i64 0, i64 0
  %20 = load i32, i32* %7, align 4
  call void @sort(i8* %19, i32 %20)
  %21 = getelementptr inbounds [100 x i8], [100 x i8]* %1, i64 0, i64 0
  %22 = getelementptr inbounds [100 x i8], [100 x i8]* %2, i64 0, i64 0
  %23 = call i32 @strcmp(i8* %21, i8* %22) #3
  %24 = icmp eq i32 %23, 0
  br i1 %24, label %25, label %27

25:                                               ; preds = %0
  %26 = call i32 (i8*, ...) @printf(i8* getelementptr inbounds ([4 x i8], [4 x i8]* @.str.1, i64 0, i64 0))
  br label %29

27:                                               ; preds = %0
  %28 = call i32 (i8*, ...) @printf(i8* getelementptr inbounds ([3 x i8], [3 x i8]* @.str.2, i64 0, i64 0))
  br label %29

29:                                               ; preds = %27, %25
  ret void
}

declare dso_local i32 @__isoc99_scanf(i8*, ...) #1

; Function Attrs: nounwind readonly
declare dso_local i64 @strlen(i8*) #2

; Function Attrs: noinline nounwind uwtable
define dso_local void @sort(i8* %0, i32 %1) #0 {
  %3 = alloca i8*, align 8
  %4 = alloca i32, align 4
  %5 = alloca i32, align 4
  %6 = alloca i32, align 4
  %7 = alloca i32, align 4
  %8 = alloca i8, align 1
  store i8* %0, i8** %3, align 8
  store i32 %1, i32* %4, align 4
  store i32 0, i32* %5, align 4
  br label %9

9:                                                ; preds = %67, %2
  %10 = load i32, i32* %5, align 4
  %11 = load i32, i32* %4, align 4
  %12 = sub nsw i32 %11, 1
  %13 = icmp slt i32 %10, %12
  br i1 %13, label %14, label %70

14:                                               ; preds = %9
  %15 = load i32, i32* %5, align 4
  store i32 %15, i32* %7, align 4
  %16 = load i32, i32* %5, align 4
  %17 = add nsw i32 %16, 1
  store i32 %17, i32* %6, align 4
  br label %18

18:                                               ; preds = %39, %14
  %19 = load i32, i32* %6, align 4
  %20 = load i32, i32* %4, align 4
  %21 = icmp slt i32 %19, %20
  br i1 %21, label %22, label %42

22:                                               ; preds = %18
  %23 = load i8*, i8** %3, align 8
  %24 = load i32, i32* %6, align 4
  %25 = sext i32 %24 to i64
  %26 = getelementptr inbounds i8, i8* %23, i64 %25
  %27 = load i8, i8* %26, align 1
  %28 = sext i8 %27 to i32
  %29 = load i8*, i8** %3, align 8
  %30 = load i32, i32* %7, align 4
  %31 = sext i32 %30 to i64
  %32 = getelementptr inbounds i8, i8* %29, i64 %31
  %33 = load i8, i8* %32, align 1
  %34 = sext i8 %33 to i32
  %35 = icmp slt i32 %28, %34
  br i1 %35, label %36, label %38

36:                                               ; preds = %22
  %37 = load i32, i32* %6, align 4
  store i32 %37, i32* %7, align 4
  br label %38

38:                                               ; preds = %36, %22
  br label %39

39:                                               ; preds = %38
  %40 = load i32, i32* %6, align 4
  %41 = add nsw i32 %40, 1
  store i32 %41, i32* %6, align 4
  br label %18

42:                                               ; preds = %18
  %43 = load i32, i32* %7, align 4
  %44 = load i32, i32* %5, align 4
  %45 = icmp ne i32 %43, %44
  br i1 %45, label %46, label %66

46:                                               ; preds = %42
  %47 = load i8*, i8** %3, align 8
  %48 = load i32, i32* %5, align 4
  %49 = sext i32 %48 to i64
  %50 = getelementptr inbounds i8, i8* %47, i64 %49
  %51 = load i8, i8* %50, align 1
  store i8 %51, i8* %8, align 1
  %52 = load i8*, i8** %3, align 8
  %53 = load i32, i32* %7, align 4
  %54 = sext i32 %53 to i64
  %55 = getelementptr inbounds i8, i8* %52, i64 %54
  %56 = load i8, i8* %55, align 1
  %57 = load i8*, i8** %3, align 8
  %58 = load i32, i32* %5, align 4
  %59 = sext i32 %58 to i64
  %60 = getelementptr inbounds i8, i8* %57, i64 %59
  store i8 %56, i8* %60, align 1
  %61 = load i8, i8* %8, align 1
  %62 = load i8*, i8** %3, align 8
  %63 = load i32, i32* %7, align 4
  %64 = sext i32 %63 to i64
  %65 = getelementptr inbounds i8, i8* %62, i64 %64
  store i8 %61, i8* %65, align 1
  br label %66

66:                                               ; preds = %46, %42
  br label %67

67:                                               ; preds = %66
  %68 = load i32, i32* %5, align 4
  %69 = add nsw i32 %68, 1
  store i32 %69, i32* %5, align 4
  br label %9

70:                                               ; preds = %9
  ret void
}

; Function Attrs: nounwind readonly
declare dso_local i32 @strcmp(i8*, i8*) #2

declare dso_local i32 @printf(i8*, ...) #1


!llvm.module.flags = !{!0}
!llvm.ident = !{!1}

!0 = !{i32 1, !"wchar_size", i32 4}
!1 = !{!"clang version 10.0.0-4ubuntu1 "}
